target datalayout = "e-m:e-p270:32:32-p271:32:32-p272:64:64-i64:64-i128:128-f80:128-n8:16:32:64-S128"
target triple = "x86_64-pc-linux-gnu"

; Function Attrs: mustprogress uwtable
define internal void @_ZN12_GLOBAL__N_115tinyBLAS_Q0_AVXI12block_iq4_nl10block_q8_0fE6mnpackEllll(ptr noundef nonnull align 16 dereferenceable(80) %0, i64 noundef %1, i64 noundef %2, i64 noundef %3, i64 noundef %4) #0 align 2 {
  %6 = alloca ptr, align 8
  %7 = alloca i64, align 8
  %8 = alloca i64, align 8
  %9 = alloca i64, align 8
  %10 = alloca i64, align 8
  %11 = alloca i64, align 8
  %12 = alloca i64, align 8
  %13 = alloca i64, align 8
  %14 = alloca i64, align 8
  %15 = alloca i32, align 4
  store ptr %0, ptr %6, align 8, !tbaa !92
  store i64 %1, ptr %7, align 8, !tbaa !9
  store i64 %2, ptr %8, align 8, !tbaa !9
  store i64 %3, ptr %9, align 8, !tbaa !9
  store i64 %4, ptr %10, align 8, !tbaa !9
  %16 = load ptr, ptr %6, align 8
  call void @llvm.lifetime.start.p0(i64 8, ptr %11) #29
  call void @llvm.lifetime.start.p0(i64 8, ptr %12) #29
  call void @llvm.lifetime.start.p0(i64 8, ptr %13) #29
  call void @llvm.lifetime.start.p0(i64 8, ptr %14) #29
  %17 = load i64, ptr %8, align 8, !tbaa !9
  %18 = load i64, ptr %7, align 8, !tbaa !9
  %19 = sub nsw i64 %17, %18
  %20 = icmp slt i64 %19, 4
  br i1 %20, label %21, label %25

21:                                               ; preds = %5
  %22 = load i64, ptr %8, align 8, !tbaa !9
  %23 = load i64, ptr %7, align 8, !tbaa !9
  %24 = sub nsw i64 %22, %23
  br label %26

25:                                               ; preds = %5
  br label %26

26:                                               ; preds = %25, %21
  %27 = phi i64 [ %24, %21 ], [ 4, %25 ]
  %28 = shl i64 %27, 4
  %29 = load i64, ptr %10, align 8, !tbaa !9
  %30 = load i64, ptr %9, align 8, !tbaa !9
  %31 = sub nsw i64 %29, %30
  %32 = icmp slt i64 %31, 4
  br i1 %32, label %33, label %37

33:                                               ; preds = %26
  %34 = load i64, ptr %10, align 8, !tbaa !9
  %35 = load i64, ptr %9, align 8, !tbaa !9
  %36 = sub nsw i64 %34, %35
  br label %38

37:                                               ; preds = %26
  br label %38

38:                                               ; preds = %37, %33
  %39 = phi i64 [ %36, %33 ], [ 4, %37 ]
  %40 = or i64 %28, %39
  switch i64 %40, label %121 [
    i64 68, label %41
    i64 67, label %46
    i64 52, label %51
    i64 51, label %56
    i64 66, label %61
    i64 36, label %66
    i64 50, label %71
    i64 35, label %76
    i64 65, label %81
    i64 34, label %86
    i64 20, label %91
    i64 49, label %96
    i64 19, label %101
    i64 33, label %106
    i64 18, label %111
    i64 17, label %116
  ]

41:                                               ; preds = %38
  store i64 4, ptr %11, align 8, !tbaa !9
  store i64 4, ptr %12, align 8, !tbaa !9
  %42 = load i64, ptr %7, align 8, !tbaa !9
  %43 = load i64, ptr %8, align 8, !tbaa !9
  %44 = load i64, ptr %9, align 8, !tbaa !9
  %45 = load i64, ptr %10, align 8, !tbaa !9
  call void @_ZN12_GLOBAL__N_115tinyBLAS_Q0_AVXI12block_iq4_nl10block_q8_0fE7gemm4xNILi4EEEvllll(ptr noundef nonnull align 16 dereferenceable(80) %16, i64 noundef %42, i64 noundef %43, i64 noundef %44, i64 noundef %45)
  br label %122

46:                                               ; preds = %38
  store i64 4, ptr %11, align 8, !tbaa !9
  store i64 3, ptr %12, align 8, !tbaa !9
  %47 = load i64, ptr %7, align 8, !tbaa !9
  %48 = load i64, ptr %8, align 8, !tbaa !9
  %49 = load i64, ptr %9, align 8, !tbaa !9
  %50 = load i64, ptr %10, align 8, !tbaa !9
  call void @_ZN12_GLOBAL__N_115tinyBLAS_Q0_AVXI12block_iq4_nl10block_q8_0fE7gemm4xNILi3EEEvllll(ptr noundef nonnull align 16 dereferenceable(80) %16, i64 noundef %47, i64 noundef %48, i64 noundef %49, i64 noundef %50)
  br label %122

51:                                               ; preds = %38
  store i64 3, ptr %11, align 8, !tbaa !9
  store i64 4, ptr %12, align 8, !tbaa !9
  %52 = load i64, ptr %7, align 8, !tbaa !9
  %53 = load i64, ptr %8, align 8, !tbaa !9
  %54 = load i64, ptr %9, align 8, !tbaa !9
  %55 = load i64, ptr %10, align 8, !tbaa !9
  call void @_ZN12_GLOBAL__N_115tinyBLAS_Q0_AVXI12block_iq4_nl10block_q8_0fE7gemmMx4ILi3EEEvllll(ptr noundef nonnull align 16 dereferenceable(80) %16, i64 noundef %52, i64 noundef %53, i64 noundef %54, i64 noundef %55)
  br label %122

56:                                               ; preds = %38
  store i64 3, ptr %11, align 8, !tbaa !9
  store i64 3, ptr %12, align 8, !tbaa !9
  %57 = load i64, ptr %7, align 8, !tbaa !9
  %58 = load i64, ptr %8, align 8, !tbaa !9
  %59 = load i64, ptr %9, align 8, !tbaa !9
  %60 = load i64, ptr %10, align 8, !tbaa !9
  call void @_ZN12_GLOBAL__N_115tinyBLAS_Q0_AVXI12block_iq4_nl10block_q8_0fE4gemmILi3ELi3EEEvllll(ptr noundef nonnull align 16 dereferenceable(80) %16, i64 noundef %57, i64 noundef %58, i64 noundef %59, i64 noundef %60)
  br label %122

61:                                               ; preds = %38
  store i64 4, ptr %11, align 8, !tbaa !9
  store i64 2, ptr %12, align 8, !tbaa !9
  %62 = load i64, ptr %7, align 8, !tbaa !9
  %63 = load i64, ptr %8, align 8, !tbaa !9
  %64 = load i64, ptr %9, align 8, !tbaa !9
  %65 = load i64, ptr %10, align 8, !tbaa !9
  call void @_ZN12_GLOBAL__N_115tinyBLAS_Q0_AVXI12block_iq4_nl10block_q8_0fE7gemm4xNILi2EEEvllll(ptr noundef nonnull align 16 dereferenceable(80) %16, i64 noundef %62, i64 noundef %63, i64 noundef %64, i64 noundef %65)
  br label %122

66:                                               ; preds = %38
  store i64 2, ptr %11, align 8, !tbaa !9
  store i64 4, ptr %12, align 8, !tbaa !9
  %67 = load i64, ptr %7, align 8, !tbaa !9
  %68 = load i64, ptr %8, align 8, !tbaa !9
  %69 = load i64, ptr %9, align 8, !tbaa !9
  %70 = load i64, ptr %10, align 8, !tbaa !9
  call void @_ZN12_GLOBAL__N_115tinyBLAS_Q0_AVXI12block_iq4_nl10block_q8_0fE7gemmMx4ILi2EEEvllll(ptr noundef nonnull align 16 dereferenceable(80) %16, i64 noundef %67, i64 noundef %68, i64 noundef %69, i64 noundef %70)
  br label %122

71:                                               ; preds = %38
  store i64 3, ptr %11, align 8, !tbaa !9
  store i64 2, ptr %12, align 8, !tbaa !9
  %72 = load i64, ptr %7, align 8, !tbaa !9
  %73 = load i64, ptr %8, align 8, !tbaa !9
  %74 = load i64, ptr %9, align 8, !tbaa !9
  %75 = load i64, ptr %10, align 8, !tbaa !9
  call void @_ZN12_GLOBAL__N_115tinyBLAS_Q0_AVXI12block_iq4_nl10block_q8_0fE4gemmILi3ELi2EEEvllll(ptr noundef nonnull align 16 dereferenceable(80) %16, i64 noundef %72, i64 noundef %73, i64 noundef %74, i64 noundef %75)
  br label %122

76:                                               ; preds = %38
  store i64 2, ptr %11, align 8, !tbaa !9
  store i64 3, ptr %12, align 8, !tbaa !9
  %77 = load i64, ptr %7, align 8, !tbaa !9
  %78 = load i64, ptr %8, align 8, !tbaa !9
  %79 = load i64, ptr %9, align 8, !tbaa !9
  %80 = load i64, ptr %10, align 8, !tbaa !9
  call void @_ZN12_GLOBAL__N_115tinyBLAS_Q0_AVXI12block_iq4_nl10block_q8_0fE4gemmILi2ELi3EEEvllll(ptr noundef nonnull align 16 dereferenceable(80) %16, i64 noundef %77, i64 noundef %78, i64 noundef %79, i64 noundef %80)
  br label %122

81:                                               ; preds = %38
  store i64 4, ptr %11, align 8, !tbaa !9
  store i64 1, ptr %12, align 8, !tbaa !9
  %82 = load i64, ptr %7, align 8, !tbaa !9
  %83 = load i64, ptr %8, align 8, !tbaa !9
  %84 = load i64, ptr %9, align 8, !tbaa !9
  %85 = load i64, ptr %10, align 8, !tbaa !9
  call void @_ZN12_GLOBAL__N_115tinyBLAS_Q0_AVXI12block_iq4_nl10block_q8_0fE7gemm4xNILi1EEEvllll(ptr noundef nonnull align 16 dereferenceable(80) %16, i64 noundef %82, i64 noundef %83, i64 noundef %84, i64 noundef %85)
  br label %122

86:                                               ; preds = %38
  store i64 2, ptr %11, align 8, !tbaa !9
  store i64 2, ptr %12, align 8, !tbaa !9
  %87 = load i64, ptr %7, align 8, !tbaa !9
  %88 = load i64, ptr %8, align 8, !tbaa !9
  %89 = load i64, ptr %9, align 8, !tbaa !9
  %90 = load i64, ptr %10, align 8, !tbaa !9
  call void @_ZN12_GLOBAL__N_115tinyBLAS_Q0_AVXI12block_iq4_nl10block_q8_0fE4gemmILi2ELi2EEEvllll(ptr noundef nonnull align 16 dereferenceable(80) %16, i64 noundef %87, i64 noundef %88, i64 noundef %89, i64 noundef %90)
  br label %122

91:                                               ; preds = %38
  store i64 1, ptr %11, align 8, !tbaa !9
  store i64 4, ptr %12, align 8, !tbaa !9
  %92 = load i64, ptr %7, align 8, !tbaa !9
  %93 = load i64, ptr %8, align 8, !tbaa !9
  %94 = load i64, ptr %9, align 8, !tbaa !9
  %95 = load i64, ptr %10, align 8, !tbaa !9
  call void @_ZN12_GLOBAL__N_115tinyBLAS_Q0_AVXI12block_iq4_nl10block_q8_0fE7gemmMx4ILi1EEEvllll(ptr noundef nonnull align 16 dereferenceable(80) %16, i64 noundef %92, i64 noundef %93, i64 noundef %94, i64 noundef %95)
  br label %122

96:                                               ; preds = %38
  store i64 3, ptr %11, align 8, !tbaa !9
  store i64 1, ptr %12, align 8, !tbaa !9
  %97 = load i64, ptr %7, align 8, !tbaa !9
  %98 = load i64, ptr %8, align 8, !tbaa !9
  %99 = load i64, ptr %9, align 8, !tbaa !9
  %100 = load i64, ptr %10, align 8, !tbaa !9
  call void @_ZN12_GLOBAL__N_115tinyBLAS_Q0_AVXI12block_iq4_nl10block_q8_0fE4gemmILi3ELi1EEEvllll(ptr noundef nonnull align 16 dereferenceable(80) %16, i64 noundef %97, i64 noundef %98, i64 noundef %99, i64 noundef %100)
  br label %122

101:                                              ; preds = %38
  store i64 1, ptr %11, align 8, !tbaa !9
  store i64 3, ptr %12, align 8, !tbaa !9
  %102 = load i64, ptr %7, align 8, !tbaa !9
  %103 = load i64, ptr %8, align 8, !tbaa !9
  %104 = load i64, ptr %9, align 8, !tbaa !9
  %105 = load i64, ptr %10, align 8, !tbaa !9
  call void @_ZN12_GLOBAL__N_115tinyBLAS_Q0_AVXI12block_iq4_nl10block_q8_0fE4gemmILi1ELi3EEEvllll(ptr noundef nonnull align 16 dereferenceable(80) %16, i64 noundef %102, i64 noundef %103, i64 noundef %104, i64 noundef %105)
  br label %122

106:                                              ; preds = %38
  store i64 2, ptr %11, align 8, !tbaa !9
  store i64 1, ptr %12, align 8, !tbaa !9
  %107 = load i64, ptr %7, align 8, !tbaa !9
  %108 = load i64, ptr %8, align 8, !tbaa !9
  %109 = load i64, ptr %9, align 8, !tbaa !9
  %110 = load i64, ptr %10, align 8, !tbaa !9
  call void @_ZN12_GLOBAL__N_115tinyBLAS_Q0_AVXI12block_iq4_nl10block_q8_0fE4gemmILi2ELi1EEEvllll(ptr noundef nonnull align 16 dereferenceable(80) %16, i64 noundef %107, i64 noundef %108, i64 noundef %109, i64 noundef %110)
  br label %122

111:                                              ; preds = %38
  store i64 1, ptr %11, align 8, !tbaa !9
  store i64 2, ptr %12, align 8, !tbaa !9
  %112 = load i64, ptr %7, align 8, !tbaa !9
  %113 = load i64, ptr %8, align 8, !tbaa !9
  %114 = load i64, ptr %9, align 8, !tbaa !9
  %115 = load i64, ptr %10, align 8, !tbaa !9
  call void @_ZN12_GLOBAL__N_115tinyBLAS_Q0_AVXI12block_iq4_nl10block_q8_0fE4gemmILi1ELi2EEEvllll(ptr noundef nonnull align 16 dereferenceable(80) %16, i64 noundef %112, i64 noundef %113, i64 noundef %114, i64 noundef %115)
  br label %122

116:                                              ; preds = %38
  store i64 1, ptr %11, align 8, !tbaa !9
  store i64 1, ptr %12, align 8, !tbaa !9
  %117 = load i64, ptr %7, align 8, !tbaa !9
  %118 = load i64, ptr %8, align 8, !tbaa !9
  %119 = load i64, ptr %9, align 8, !tbaa !9
  %120 = load i64, ptr %10, align 8, !tbaa !9
  call void @_ZN12_GLOBAL__N_115tinyBLAS_Q0_AVXI12block_iq4_nl10block_q8_0fE4gemmILi1ELi1EEEvllll(ptr noundef nonnull align 16 dereferenceable(80) %16, i64 noundef %117, i64 noundef %118, i64 noundef %119, i64 noundef %120)
  br label %122

121:                                              ; preds = %38
  store i32 1, ptr %15, align 4
  br label %149

122:                                              ; preds = %116, %111, %106, %101, %96, %91, %86, %81, %76, %71, %66, %61, %56, %51, %46, %41
  %123 = load i64, ptr %7, align 8, !tbaa !9
  %124 = load i64, ptr %8, align 8, !tbaa !9
  %125 = load i64, ptr %7, align 8, !tbaa !9
  %126 = sub nsw i64 %124, %125
  %127 = load i64, ptr %11, align 8, !tbaa !9
  %128 = sdiv i64 %126, %127
  %129 = load i64, ptr %11, align 8, !tbaa !9
  %130 = mul nsw i64 %128, %129
  %131 = add nsw i64 %123, %130
  store i64 %131, ptr %13, align 8, !tbaa !9
  %132 = load i64, ptr %9, align 8, !tbaa !9
  %133 = load i64, ptr %10, align 8, !tbaa !9
  %134 = load i64, ptr %9, align 8, !tbaa !9
  %135 = sub nsw i64 %133, %134
  %136 = load i64, ptr %12, align 8, !tbaa !9
  %137 = sdiv i64 %135, %136
  %138 = load i64, ptr %12, align 8, !tbaa !9
  %139 = mul nsw i64 %137, %138
  %140 = add nsw i64 %132, %139
  store i64 %140, ptr %14, align 8, !tbaa !9
  %141 = load i64, ptr %13, align 8, !tbaa !9
  %142 = load i64, ptr %8, align 8, !tbaa !9
  %143 = load i64, ptr %9, align 8, !tbaa !9
  %144 = load i64, ptr %14, align 8, !tbaa !9
  call void @_ZN12_GLOBAL__N_115tinyBLAS_Q0_AVXI12block_iq4_nl10block_q8_0fE6mnpackEllll(ptr noundef nonnull align 16 dereferenceable(80) %16, i64 noundef %141, i64 noundef %142, i64 noundef %143, i64 noundef %144)
  %145 = load i64, ptr %7, align 8, !tbaa !9
  %146 = load i64, ptr %8, align 8, !tbaa !9
  %147 = load i64, ptr %14, align 8, !tbaa !9
  %148 = load i64, ptr %10, align 8, !tbaa !9
  call void @_ZN12_GLOBAL__N_115tinyBLAS_Q0_AVXI12block_iq4_nl10block_q8_0fE6mnpackEllll(ptr noundef nonnull align 16 dereferenceable(80) %16, i64 noundef %145, i64 noundef %146, i64 noundef %147, i64 noundef %148)
  store i32 0, ptr %15, align 4
  br label %149

149:                                              ; preds = %122, %121
  call void @llvm.lifetime.end.p0(i64 8, ptr %14) #29
  call void @llvm.lifetime.end.p0(i64 8, ptr %13) #29
  call void @llvm.lifetime.end.p0(i64 8, ptr %12) #29
  call void @llvm.lifetime.end.p0(i64 8, ptr %11) #29
  %150 = load i32, ptr %15, align 4
  switch i32 %150, label %152 [
    i32 0, label %151
    i32 1, label %151
  ]

151:                                              ; preds = %149, %149
  ret void

152:                                              ; preds = %149
  unreachable
}