; Function Attrs: mustprogress nofree nosync nounwind memory(readwrite, inaccessiblemem: none) uwtable
define internal fastcc void @_ZN12_GLOBAL__N_115tinyBLAS_Q0_AVXI12block_iq4_nl10block_q8_0fE6mnpackEllll(ptr noundef nonnull readonly align 16 captures(none) dereferenceable(80) %0, i64 noundef %1, i64 noundef %2, i64 noundef %3, i64 noundef %4) unnamed_addr #7 align 2 {
  %6 = sub nsw i64 %2, %1
  %7 = tail call i64 @llvm.smin.i64(i64 %6, i64 4)
  %8 = shl i64 %7, 4
  br label %tailrecurse

tailrecurse:                                      ; preds = %28, %5
  %.tr93 = phi i64 [ %3, %5 ], [ %33, %28 ]
  %9 = sub nsw i64 %4, %.tr93
  %10 = tail call i64 @llvm.smin.i64(i64 %9, i64 4)
  %11 = or i64 %10, %8
  switch i64 %11, label %34 [
    i64 68, label %12
    i64 67, label %13
    i64 52, label %14
    i64 51, label %15
    i64 66, label %16
    i64 36, label %17
    i64 50, label %18
    i64 35, label %19
    i64 65, label %20
    i64 34, label %21
    i64 20, label %22
    i64 49, label %23
    i64 19, label %24
    i64 33, label %25
    i64 18, label %26
    i64 17, label %27
  ]

12:                                               ; preds = %tailrecurse
  tail call fastcc void @_ZN12_GLOBAL__N_115tinyBLAS_Q0_AVXI12block_iq4_nl10block_q8_0fE7gemm4xNILi4EEEvllll(ptr noundef nonnull align 16 dereferenceable(80) %0, i64 noundef %1, i64 noundef %2, i64 noundef %.tr93, i64 noundef %4)
  br label %28

13:                                               ; preds = %tailrecurse
  tail call fastcc void @_ZN12_GLOBAL__N_115tinyBLAS_Q0_AVXI12block_iq4_nl10block_q8_0fE7gemm4xNILi3EEEvllll(ptr noundef nonnull align 16 dereferenceable(80) %0, i64 noundef %1, i64 noundef %2, i64 noundef %.tr93, i64 noundef %4)
  br label %28

14:                                               ; preds = %tailrecurse
  tail call fastcc void @_ZN12_GLOBAL__N_115tinyBLAS_Q0_AVXI12block_iq4_nl10block_q8_0fE7gemmMx4ILi3EEEvllll(ptr noundef nonnull align 16 dereferenceable(80) %0, i64 noundef %1, i64 noundef %2, i64 noundef %.tr93, i64 noundef %4)
  br label %28

15:                                               ; preds = %tailrecurse
  tail call fastcc void @_ZN12_GLOBAL__N_115tinyBLAS_Q0_AVXI12block_iq4_nl10block_q8_0fE4gemmILi3ELi3EEEvllll(ptr noundef nonnull align 16 dereferenceable(80) %0, i64 noundef %1, i64 noundef %2, i64 noundef %.tr93, i64 noundef %4)
  br label %28

16:                                               ; preds = %tailrecurse
  tail call fastcc void @_ZN12_GLOBAL__N_115tinyBLAS_Q0_AVXI12block_iq4_nl10block_q8_0fE7gemm4xNILi2EEEvllll(ptr noundef nonnull align 16 dereferenceable(80) %0, i64 noundef %1, i64 noundef %2, i64 noundef %.tr93, i64 noundef %4)
  br label %28

17:                                               ; preds = %tailrecurse
  tail call fastcc void @_ZN12_GLOBAL__N_115tinyBLAS_Q0_AVXI12block_iq4_nl10block_q8_0fE7gemmMx4ILi2EEEvllll(ptr noundef nonnull align 16 dereferenceable(80) %0, i64 noundef %1, i64 noundef %2, i64 noundef %.tr93, i64 noundef %4)
  br label %28

18:                                               ; preds = %tailrecurse
  tail call fastcc void @_ZN12_GLOBAL__N_115tinyBLAS_Q0_AVXI12block_iq4_nl10block_q8_0fE4gemmILi3ELi2EEEvllll(ptr noundef nonnull align 16 dereferenceable(80) %0, i64 noundef %1, i64 noundef %2, i64 noundef %.tr93, i64 noundef %4)
  br label %28

19:                                               ; preds = %tailrecurse
  tail call fastcc void @_ZN12_GLOBAL__N_115tinyBLAS_Q0_AVXI12block_iq4_nl10block_q8_0fE4gemmILi2ELi3EEEvllll(ptr noundef nonnull align 16 dereferenceable(80) %0, i64 noundef %1, i64 noundef %2, i64 noundef %.tr93, i64 noundef %4)
  br label %28

20:                                               ; preds = %tailrecurse
  tail call fastcc void @_ZN12_GLOBAL__N_115tinyBLAS_Q0_AVXI12block_iq4_nl10block_q8_0fE7gemm4xNILi1EEEvllll(ptr noundef nonnull align 16 dereferenceable(80) %0, i64 noundef %1, i64 noundef %2, i64 noundef %.tr93, i64 noundef %4)
  br label %28

21:                                               ; preds = %tailrecurse
  tail call fastcc void @_ZN12_GLOBAL__N_115tinyBLAS_Q0_AVXI12block_iq4_nl10block_q8_0fE4gemmILi2ELi2EEEvllll(ptr noundef nonnull align 16 dereferenceable(80) %0, i64 noundef %1, i64 noundef %2, i64 noundef %.tr93, i64 noundef %4)
  br label %28

22:                                               ; preds = %tailrecurse
  tail call fastcc void @_ZN12_GLOBAL__N_115tinyBLAS_Q0_AVXI12block_iq4_nl10block_q8_0fE7gemmMx4ILi1EEEvllll(ptr noundef nonnull align 16 dereferenceable(80) %0, i64 noundef %1, i64 noundef %2, i64 noundef %.tr93, i64 noundef %4)
  br label %28

23:                                               ; preds = %tailrecurse
  tail call fastcc void @_ZN12_GLOBAL__N_115tinyBLAS_Q0_AVXI12block_iq4_nl10block_q8_0fE4gemmILi3ELi1EEEvllll(ptr noundef nonnull align 16 dereferenceable(80) %0, i64 noundef %1, i64 noundef %2, i64 noundef %.tr93, i64 noundef %4)
  br label %28

24:                                               ; preds = %tailrecurse
  tail call fastcc void @_ZN12_GLOBAL__N_115tinyBLAS_Q0_AVXI12block_iq4_nl10block_q8_0fE4gemmILi1ELi3EEEvllll(ptr noundef nonnull align 16 dereferenceable(80) %0, i64 noundef %1, i64 noundef %2, i64 noundef %.tr93, i64 noundef %4)
  br label %28

25:                                               ; preds = %tailrecurse
  tail call fastcc void @_ZN12_GLOBAL__N_115tinyBLAS_Q0_AVXI12block_iq4_nl10block_q8_0fE4gemmILi2ELi1EEEvllll(ptr noundef nonnull align 16 dereferenceable(80) %0, i64 noundef %1, i64 noundef %2, i64 noundef %.tr93, i64 noundef %4)
  br label %28

26:                                               ; preds = %tailrecurse
  tail call fastcc void @_ZN12_GLOBAL__N_115tinyBLAS_Q0_AVXI12block_iq4_nl10block_q8_0fE4gemmILi1ELi2EEEvllll(ptr noundef nonnull align 16 dereferenceable(80) %0, i64 noundef %1, i64 noundef %2, i64 noundef %.tr93, i64 noundef %4)
  br label %28

27:                                               ; preds = %tailrecurse
  tail call fastcc void @_ZN12_GLOBAL__N_115tinyBLAS_Q0_AVXI12block_iq4_nl10block_q8_0fE4gemmILi1ELi1EEEvllll(ptr noundef nonnull align 16 dereferenceable(80) %0, i64 noundef %1, i64 noundef %2, i64 noundef %.tr93, i64 noundef %4)
  br label %28

28:                                               ; preds = %27, %26, %25, %24, %23, %22, %21, %20, %19, %18, %17, %16, %15, %14, %13, %12
  %.090 = phi i64 [ 1, %27 ], [ 2, %26 ], [ 1, %25 ], [ 3, %24 ], [ 1, %23 ], [ 4, %22 ], [ 2, %21 ], [ 1, %20 ], [ 3, %19 ], [ 2, %18 ], [ 4, %17 ], [ 2, %16 ], [ 3, %15 ], [ 4, %14 ], [ 3, %13 ], [ 4, %12 ]
  %.0 = phi i64 [ 1, %27 ], [ 1, %26 ], [ 2, %25 ], [ 1, %24 ], [ 3, %23 ], [ 1, %22 ], [ 2, %21 ], [ 4, %20 ], [ 2, %19 ], [ 3, %18 ], [ 2, %17 ], [ 4, %16 ], [ 3, %15 ], [ 3, %14 ], [ 4, %13 ], [ 4, %12 ]
  %29 = srem i64 %6, %.0
  %30 = sub i64 %2, %29
  %31 = srem i64 %9, %.090
  %32 = sub nsw i64 %9, %31
  %33 = add nsw i64 %32, %.tr93
  tail call fastcc void @_ZN12_GLOBAL__N_115tinyBLAS_Q0_AVXI12block_iq4_nl10block_q8_0fE6mnpackEllll(ptr noundef nonnull align 16 dereferenceable(80) %0, i64 noundef %30, i64 noundef %2, i64 noundef %.tr93, i64 noundef %33)
  br label %tailrecurse

34:                                               ; preds = %tailrecurse
  ret void
}